; Function Attrs: mustprogress uwtable
define hidden void @_ZN7datalog26dealloc_ptr_vector_contentER10ptr_vectorINS_13relation_baseEE(ptr noundef nonnull readonly align 8 captures(none) dereferenceable(8) %0) local_unnamed_addr #3 {
  %2 = load ptr, ptr %0, align 8, !tbaa !6
  %3 = icmp eq ptr %2, null
  br i1 %3, label %._crit_edge, label %_ZN6vectorIPN7datalog13relation_baseELb0EjE3endEv.exit

_ZN6vectorIPN7datalog13relation_baseELb0EjE3endEv.exit: ; preds = %1
  %4 = getelementptr inbounds i8, ptr %2, i64 -4
  %5 = load i32, ptr %4, align 4, !tbaa !12
  %6 = zext i32 %5 to i64
  %7 = getelementptr inbounds nuw ptr, ptr %2, i64 %6
  %.not8 = icmp eq i32 %5, 0
  br i1 %.not8, label %._crit_edge, label %.lr.ph

._crit_edge:                                      ; preds = %.lr.ph, %1, %_ZN6vectorIPN7datalog13relation_baseELb0EjE3endEv.exit
  ret void

.lr.ph:                                           ; preds = %_ZN6vectorIPN7datalog13relation_baseELb0EjE3endEv.exit, %.lr.ph
  %.09 = phi ptr [ %12, %.lr.ph ], [ %2, %_ZN6vectorIPN7datalog13relation_baseELb0EjE3endEv.exit ]
  %8 = load ptr, ptr %.09, align 8, !tbaa !14
  %9 = load ptr, ptr %8, align 8, !tbaa !3
  %10 = getelementptr inbounds nuw i8, ptr %9, i64 16
  %11 = load ptr, ptr %10, align 8
  tail call void %11(ptr noundef nonnull align 8 dereferenceable(28) %8)
  %12 = getelementptr inbounds nuw i8, ptr %.09, i64 8
  %.not = icmp eq ptr %12, %7
  br i1 %.not, label %._crit_edge, label %.lr.ph
}